; Function Attrs: uwtable
define internal void @_ZThn72_N12_GLOBAL__N_113tactic2solver20user_propagate_clearEv(ptr noundef readonly captures(none) %0) unnamed_addr #14 align 2 {
  %2 = getelementptr inbounds nuw i8, ptr %0, i64 104
  %3 = load ptr, ptr %2, align 8, !tbaa !52
  %.not.i = icmp eq ptr %3, null
  br i1 %.not.i, label %_ZN12_GLOBAL__N_113tactic2solver20user_propagate_clearEv.exit, label %4

4:                                                ; preds = %1
  %5 = load ptr, ptr %3, align 8, !tbaa !3
  %6 = getelementptr inbounds nuw i8, ptr %5, i64 80
  %7 = load ptr, ptr %6, align 8
  tail call void %7(ptr noundef nonnull align 8 dereferenceable(8) %3)
  br label %_ZN12_GLOBAL__N_113tactic2solver20user_propagate_clearEv.exit

_ZN12_GLOBAL__N_113tactic2solver20user_propagate_clearEv.exit: ; preds = %1, %4
  ret void
}